(lp0
F9.918928146362305
aF23.441076278686523
aF99.37214851379395
aF67.5201416015625
aF146.50607109069824
aF142.42815971374512
aF139.2080783843994
aF203.59396934509277
aF112.70403861999512
aF234.6510887145996
aF146.4369297027588
aF207.37600326538086
aF262.6969814300537
aF241.66297912597656
aF253.82614135742188
aF244.68708038330078
aF277.3280143737793
aF253.9219856262207
aF269.7172164916992
aF286.7119312286377
aF277.36711502075195
aF304.11505699157715
aF310.8100891113281
aF306.3211441040039
aF306.81610107421875
aF308.72201919555664
aF879.2641162872314
aF1462.3081684112549
aF2530.7488441467285
aF3361.762046813965
aF4576.864004135132
aF4474.740028381348
aF6.537914276123047
aF22.762060165405273
aF149.4770050048828
aF357.05089569091797
aF150.68578720092773
aF94.0248966217041
aF8079.451084136963
aF40482.99193382263
aF60366.19186401367
aF85519.522190094
aF125098.70100021362
aF159702.97408103943
aF190680.35507202148
aF235069.72193717957
aF258936.43403053284
aF285306.77485466003
aF319576.0250091553
aF349101.2909412384
aF383440.2709007263
aF422149.827003479
aF467747.0541000366
aF504483.6678504944
aF532997.0240592957
aF586693.4239864349
aF607940.9699440002
aF9666.731834411621
aF641.0229206085205
aF1513.5719776153564
aF2685.478925704956
aF3251.718044281006
aF4231.673955917358
aF4515.444040298462
aF5252.661943435669
aF5782.86600112915
aF7842.121839523315
a.