(lp0
F6.088972091674805
aF25.254011154174805
aF107.65409469604492
aF108.79683494567871
aF77.55708694458008
aF9139.94288444519
aF43029.35695648193
aF14504.322052001953
aF17426.018953323364
aF43958.09102058411
aF69042.42610931396
aF85175.12106895447
aF125618.64280700684
aF158258.455991745
aF197879.77194786072
aF235369.97604370117
aF250457.9770565033
aF282030.3809642792
aF318541.4848327637
aF344417.8960323334
aF399438.39406967163
aF434526.66997909546
aF454749.15599823
aF483773.0350494385
aF513023.4069824219
aF533970.1309204102
aF553114.382982254
aF587648.2939720154
aF608762.1650695801
aF618338.408946991
aF651533.7109565735
aF662929.8350811005
aF691426.0830879211
aF717770.6069946289
aF736444.8330402374
a.