(lp0
F14.219045639038086
aF20.25914192199707
aF23.469924926757812
aF34.8820686340332
aF41.99504852294922
aF52.43110656738281
aF92.11015701293945
aF91.36009216308594
aF81.64596557617188
aF87.38088607788086
aF96.79508209228516
aF118.78299713134766
aF1143.6049938201904
aF2434.329032897949
aF4737.076997756958
aF5401.860952377319
aF5980.966806411743
aF6920.025110244751
aF12368.343114852905
aF20598.034858703613
aF27862.066984176636
aF42540.425062179565
aF43752.638816833496
aF43873.84486198425
aF43482.83100128174
aF44067.37303733826
aF43523.12898635864
aF45883.21304321289
aF44157.98091888428
aF44905.6830406189
aF44757.84993171692
aF41308.27784538269
aF45058.93898010254
aF45394.09112930298
aF48636.4369392395
a.