(lp0
I100
aI300
aI500
aI700
aI900
aI1100
aI1300
aI1500
aI1700
aI1900
aI2100
aI2300
aI2500
aI2700
aI2900
aI3100
aI3300
aI3500
aI3700
aI3900
aI4100
aI4300
aI4500
aI4700
aI4900
aI5100
aI5300
aI5500
aI5700
aI5900
aI6100
aI6300
aI6500
aI6700
aI6900
a.