(lp0
F1.0
aF1.0
aF1.0
aF1.0
aF1.0
aF1.0
aF1.0
aF1.0
aF1.0
aF1.0
aF1.0
aF1.0
aF1.0
aF1.0
aF1.0
aF0.992752688172043
aF0.9195252525252525
aF0.8077619047619048
aF0.7758198198198198
aF0.7328461538461538
aF0.570560975609756
aF0.3946046511627907
aF0.16828148148148148
aF0.20409219858156027
aF0.3079387755102041
aF0.10764705882352942
aF0.16229559748427672
aF0.1938181818181818
aF0.1853157894736842
aF0.11744067796610169
aF0.22504371584699454
aF0.16516931216931216
aF0.16015384615384615
aF0.1490049751243781
aF0.10890338164251208
a.