(lp0
F0.9333333333333333
aF1.0
aF1.0
aF1.0
aF1.0
aF1.0
aF1.0
aF1.0
aF1.0
aF1.0
aF1.0
aF1.0
aF1.0
aF1.0
aF1.0
aF1.0
aF1.0
aF1.0
aF1.0
aF1.0
aF1.0
aF1.0
aF1.0
aF1.0
aF1.0
aF1.0
aF1.0
aF1.0
aF1.0
aF0.9645310734463277
aF0.8963497267759563
aF0.8846772486772487
aF1.0
aF1.0
aF1.0
aF0.8444285714285714
aF1.0
aF1.0
aF0.5289487179487179
aF0.08315555555555555
aF0.10370588235294118
aF0.08682456140350878
aF0.009873015873015874
aF0.00608695652173913
aF0.0034533333333333334
aF0.002271604938271605
aF0.018563218390804596
aF0.00278494623655914
aF0.0012323232323232323
aF0.0011238095238095239
aF0.0011081081081081082
aF0.0009145299145299146
aF0.0010162601626016261
aF0.00039534883720930233
aF0.001037037037037037
aF0.00022695035460992908
aF0.011605442176870748
aF0.835437908496732
aF1.0
aF1.0
aF1.0
aF0.9735197740112994
aF0.9234972677595629
aF0.8748359788359789
aF0.8460820512820513
aF0.8070099502487562
aF0.7450628019323672
a.