(lp0
F1.0
aF1.0
aF1.0
aF1.0
aF1.0
aF1.0
aF1.0
aF1.0
aF1.0
aF1.0
aF1.0
aF1.0
aF1.0
aF1.0
aF1.0
aF1.0
aF1.0
aF1.0
aF1.0
aF1.0
aF1.0
aF1.0
aF0.9825777777777778
aF0.9470283687943263
aF0.9042448979591837
aF0.8568300653594771
aF0.8025911949685535
aF0.7390727272727273
aF0.6443333333333333
aF0.5238022598870057
aF0.3689234972677596
aF0.3557724867724868
aF0.3300666666666667
aF0.31865671641791044
aF0.2991111111111111
a.